target datalayout = "e-m:e-p270:32:32-p271:32:32-p272:64:64-i64:64-i128:128-f80:128-n8:16:32:64-S128"
target triple = "x86_64-pc-linux-gnu"

%struct.bz_stream = type { ptr, i32, i32, i32, ptr, i32, i32, i32, ptr, ptr, ptr, ptr }
%struct.EState = type { ptr, i32, i32, i32, ptr, ptr, ptr, i32, ptr, ptr, ptr, ptr, i32, i32, i32, i32, i32, i32, i32, i32, i32, i32, [256 x i8], [256 x i8], i32, i32, i32, i32, i32, i32, i32, i32, [258 x i32], [18002 x i8], [18002 x i8], [6 x [258 x i8]], [6 x [258 x i32]], [6 x [258 x i32]], [258 x [4 x i32]] }

; Function Attrs: nounwind uwtable
define internal zeroext i8 @isempty_RL(ptr noundef %0) #0 {
  %2 = alloca i8, align 1
  %3 = alloca ptr, align 8
  store ptr %0, ptr %3, align 8
  %4 = load ptr, ptr %3, align 8
  %5 = getelementptr inbounds %struct.EState, ptr %4, i32 0, i32 13
  %6 = load i32, ptr %5, align 4
  %7 = icmp ult i32 %6, 256
  br i1 %7, label %8, label %14

8:                                                ; preds = %1
  %9 = load ptr, ptr %3, align 8
  %10 = getelementptr inbounds %struct.EState, ptr %9, i32 0, i32 14
  %11 = load i32, ptr %10, align 8
  %12 = icmp sgt i32 %11, 0
  br i1 %12, label %13, label %14

13:                                               ; preds = %8
  store i8 0, ptr %2, align 1
  br label %15

14:                                               ; preds = %8, %1
  store i8 1, ptr %2, align 1
  br label %15

15:                                               ; preds = %14, %13
  %16 = load i8, ptr %2, align 1
  ret i8 %16
}

; Function Attrs: nounwind uwtable
define i32 @BZ2_bzCompress(ptr noundef %0, i32 noundef %1) #0 {
  %3 = alloca i32, align 4
  %4 = alloca ptr, align 8
  %5 = alloca i32, align 4
  %6 = alloca i8, align 1
  %7 = alloca ptr, align 8
  store ptr %0, ptr %4, align 8
  store i32 %1, ptr %5, align 4
  %8 = load ptr, ptr %4, align 8
  %9 = icmp eq ptr %8, null
  br i1 %9, label %10, label %11

10:                                               ; preds = %2
  store i32 -2, ptr %3, align 4
  br label %145

11:                                               ; preds = %2
  %12 = load ptr, ptr %4, align 8
  %13 = getelementptr inbounds %struct.bz_stream, ptr %12, i32 0, i32 8
  %14 = load ptr, ptr %13, align 8
  store ptr %14, ptr %7, align 8
  %15 = load ptr, ptr %7, align 8
  %16 = icmp eq ptr %15, null
  br i1 %16, label %17, label %18

17:                                               ; preds = %11
  store i32 -2, ptr %3, align 4
  br label %145

18:                                               ; preds = %11
  %19 = load ptr, ptr %7, align 8
  %20 = getelementptr inbounds %struct.EState, ptr %19, i32 0, i32 0
  %21 = load ptr, ptr %20, align 8
  %22 = load ptr, ptr %4, align 8
  %23 = icmp ne ptr %21, %22
  br i1 %23, label %24, label %25

24:                                               ; preds = %18
  store i32 -2, ptr %3, align 4
  br label %145

25:                                               ; preds = %18
  br label %26

26:                                               ; preds = %55, %44, %25
  %27 = load ptr, ptr %7, align 8
  %28 = getelementptr inbounds %struct.EState, ptr %27, i32 0, i32 1
  %29 = load i32, ptr %28, align 8
  switch i32 %29, label %144 [
    i32 1, label %30
    i32 2, label %31
    i32 3, label %64
    i32 4, label %102
  ]

30:                                               ; preds = %26
  store i32 -1, ptr %3, align 4
  br label %145

31:                                               ; preds = %26
  %32 = load i32, ptr %5, align 4
  %33 = icmp eq i32 %32, 0
  br i1 %33, label %34, label %41

34:                                               ; preds = %31
  %35 = load ptr, ptr %4, align 8
  %36 = call zeroext i8 @handle_compress(ptr noundef %35)
  store i8 %36, ptr %6, align 1
  %37 = load i8, ptr %6, align 1
  %38 = zext i8 %37 to i32
  %39 = icmp ne i32 %38, 0
  %40 = select i1 %39, i32 1, i32 -2
  store i32 %40, ptr %3, align 4
  br label %145

41:                                               ; preds = %31
  %42 = load i32, ptr %5, align 4
  %43 = icmp eq i32 %42, 1
  br i1 %43, label %44, label %52

44:                                               ; preds = %41
  %45 = load ptr, ptr %4, align 8
  %46 = getelementptr inbounds %struct.bz_stream, ptr %45, i32 0, i32 1
  %47 = load i32, ptr %46, align 8
  %48 = load ptr, ptr %7, align 8
  %49 = getelementptr inbounds %struct.EState, ptr %48, i32 0, i32 3
  store i32 %47, ptr %49, align 8
  %50 = load ptr, ptr %7, align 8
  %51 = getelementptr inbounds %struct.EState, ptr %50, i32 0, i32 1
  store i32 3, ptr %51, align 8
  br label %26

52:                                               ; preds = %41
  %53 = load i32, ptr %5, align 4
  %54 = icmp eq i32 %53, 2
  br i1 %54, label %55, label %63

55:                                               ; preds = %52
  %56 = load ptr, ptr %4, align 8
  %57 = getelementptr inbounds %struct.bz_stream, ptr %56, i32 0, i32 1
  %58 = load i32, ptr %57, align 8
  %59 = load ptr, ptr %7, align 8
  %60 = getelementptr inbounds %struct.EState, ptr %59, i32 0, i32 3
  store i32 %58, ptr %60, align 8
  %61 = load ptr, ptr %7, align 8
  %62 = getelementptr inbounds %struct.EState, ptr %61, i32 0, i32 1
  store i32 4, ptr %62, align 8
  br label %26

63:                                               ; preds = %52
  store i32 -2, ptr %3, align 4
  br label %145

64:                                               ; preds = %26
  %65 = load i32, ptr %5, align 4
  %66 = icmp ne i32 %65, 1
  br i1 %66, label %67, label %68

67:                                               ; preds = %64
  store i32 -1, ptr %3, align 4
  br label %145

68:                                               ; preds = %64
  %69 = load ptr, ptr %7, align 8
  %70 = getelementptr inbounds %struct.EState, ptr %69, i32 0, i32 3
  %71 = load i32, ptr %70, align 8
  %72 = load ptr, ptr %7, align 8
  %73 = getelementptr inbounds %struct.EState, ptr %72, i32 0, i32 0
  %74 = load ptr, ptr %73, align 8
  %75 = getelementptr inbounds %struct.bz_stream, ptr %74, i32 0, i32 1
  %76 = load i32, ptr %75, align 8
  %77 = icmp ne i32 %71, %76
  br i1 %77, label %78, label %79

78:                                               ; preds = %68
  store i32 -1, ptr %3, align 4
  br label %145

79:                                               ; preds = %68
  %80 = load ptr, ptr %4, align 8
  %81 = call zeroext i8 @handle_compress(ptr noundef %80)
  store i8 %81, ptr %6, align 1
  %82 = load ptr, ptr %7, align 8
  %83 = getelementptr inbounds %struct.EState, ptr %82, i32 0, i32 3
  %84 = load i32, ptr %83, align 8
  %85 = icmp ugt i32 %84, 0
  br i1 %85, label %98, label %86

86:                                               ; preds = %79
  %87 = load ptr, ptr %7, align 8
  %88 = call zeroext i8 @isempty_RL(ptr noundef %87)
  %89 = icmp ne i8 %88, 0
  br i1 %89, label %90, label %98

90:                                               ; preds = %86
  %91 = load ptr, ptr %7, align 8
  %92 = getelementptr inbounds %struct.EState, ptr %91, i32 0, i32 20
  %93 = load i32, ptr %92, align 8
  %94 = load ptr, ptr %7, align 8
  %95 = getelementptr inbounds %struct.EState, ptr %94, i32 0, i32 19
  %96 = load i32, ptr %95, align 4
  %97 = icmp slt i32 %93, %96
  br i1 %97, label %98, label %99

98:                                               ; preds = %90, %86, %79
  store i32 2, ptr %3, align 4
  br label %145

99:                                               ; preds = %90
  %100 = load ptr, ptr %7, align 8
  %101 = getelementptr inbounds %struct.EState, ptr %100, i32 0, i32 1
  store i32 2, ptr %101, align 8
  store i32 1, ptr %3, align 4
  br label %145

102:                                              ; preds = %26
  %103 = load i32, ptr %5, align 4
  %104 = icmp ne i32 %103, 2
  br i1 %104, label %105, label %106

105:                                              ; preds = %102
  store i32 -1, ptr %3, align 4
  br label %145

106:                                              ; preds = %102
  %107 = load ptr, ptr %7, align 8
  %108 = getelementptr inbounds %struct.EState, ptr %107, i32 0, i32 3
  %109 = load i32, ptr %108, align 8
  %110 = load ptr, ptr %7, align 8
  %111 = getelementptr inbounds %struct.EState, ptr %110, i32 0, i32 0
  %112 = load ptr, ptr %111, align 8
  %113 = getelementptr inbounds %struct.bz_stream, ptr %112, i32 0, i32 1
  %114 = load i32, ptr %113, align 8
  %115 = icmp ne i32 %109, %114
  br i1 %115, label %116, label %117

116:                                              ; preds = %106
  store i32 -1, ptr %3, align 4
  br label %145

117:                                              ; preds = %106
  %118 = load ptr, ptr %4, align 8
  %119 = call zeroext i8 @handle_compress(ptr noundef %118)
  store i8 %119, ptr %6, align 1
  %120 = load i8, ptr %6, align 1
  %121 = icmp ne i8 %120, 0
  br i1 %121, label %123, label %122

122:                                              ; preds = %117
  store i32 -1, ptr %3, align 4
  br label %145

123:                                              ; preds = %117
  %124 = load ptr, ptr %7, align 8
  %125 = getelementptr inbounds %struct.EState, ptr %124, i32 0, i32 3
  %126 = load i32, ptr %125, align 8
  %127 = icmp ugt i32 %126, 0
  br i1 %127, label %140, label %128

128:                                              ; preds = %123
  %129 = load ptr, ptr %7, align 8
  %130 = call zeroext i8 @isempty_RL(ptr noundef %129)
  %131 = icmp ne i8 %130, 0
  br i1 %131, label %132, label %140

132:                                              ; preds = %128
  %133 = load ptr, ptr %7, align 8
  %134 = getelementptr inbounds %struct.EState, ptr %133, i32 0, i32 20
  %135 = load i32, ptr %134, align 8
  %136 = load ptr, ptr %7, align 8
  %137 = getelementptr inbounds %struct.EState, ptr %136, i32 0, i32 19
  %138 = load i32, ptr %137, align 4
  %139 = icmp slt i32 %135, %138
  br i1 %139, label %140, label %141

140:                                              ; preds = %132, %128, %123
  store i32 3, ptr %3, align 4
  br label %145

141:                                              ; preds = %132
  %142 = load ptr, ptr %7, align 8
  %143 = getelementptr inbounds %struct.EState, ptr %142, i32 0, i32 1
  store i32 1, ptr %143, align 8
  store i32 4, ptr %3, align 4
  br label %145

144:                                              ; preds = %26
  store i32 0, ptr %3, align 4
  br label %145

145:                                              ; preds = %144, %141, %140, %122, %116, %105, %99, %98, %78, %67, %63, %34, %30, %24, %17, %10
  %146 = load i32, ptr %3, align 4
  ret i32 %146
}