; Function Attrs: nounwind uwtable
define range(i32 -2, 5) i32 @BZ2_bzCompress(ptr noundef readonly %0, i32 noundef %1) local_unnamed_addr #4 {
  %3 = icmp eq ptr %0, null
  br i1 %3, label %isempty_RL.exit.thread, label %4

4:                                                ; preds = %2
  %5 = getelementptr inbounds nuw i8, ptr %0, i64 48
  %6 = load ptr, ptr %5, align 8
  %7 = icmp eq ptr %6, null
  br i1 %7, label %isempty_RL.exit.thread, label %8

8:                                                ; preds = %4
  %9 = load ptr, ptr %6, align 8
  %.not = icmp eq ptr %9, %0
  br i1 %.not, label %.preheader, label %isempty_RL.exit.thread

.preheader:                                       ; preds = %8
  %10 = getelementptr inbounds nuw i8, ptr %6, i64 8
  %.promoted = load i32, ptr %10, align 8
  %11 = getelementptr inbounds nuw i8, ptr %0, i64 8
  %12 = getelementptr inbounds nuw i8, ptr %6, i64 16
  switch i32 %1, label %.preheader.split [
    i32 0, label %.preheader.split.us
    i32 1, label %.preheader.split.us69
    i32 2, label %.preheader.split.us77
  ]

.preheader.split.us:                              ; preds = %.preheader
  switch i32 %.promoted, label %isempty_RL.exit.thread [
    i32 1, label %isempty_RL.exit.thread.loopexit
    i32 2, label %.split68.us
    i32 3, label %.split62.us.thread
    i32 4, label %.split65.us.thread
  ]

.preheader.split.us69:                            ; preds = %.preheader, %.backedge.us70
  %13 = phi i32 [ 3, %.backedge.us70 ], [ %.promoted, %.preheader ]
  switch i32 %13, label %isempty_RL.exit.thread [
    i32 1, label %isempty_RL.exit.thread.loopexit
    i32 2, label %.backedge.us70
    i32 3, label %.split62.us
    i32 4, label %.split65.us
  ]

.backedge.us70:                                   ; preds = %.preheader.split.us69
  %14 = load i32, ptr %11, align 8
  store i32 %14, ptr %12, align 8
  store i32 3, ptr %10, align 8
  br label %.preheader.split.us69

.preheader.split.us77:                            ; preds = %.preheader, %.backedge.us78
  %15 = phi i32 [ 4, %.backedge.us78 ], [ %.promoted, %.preheader ]
  switch i32 %15, label %isempty_RL.exit.thread [
    i32 1, label %isempty_RL.exit.thread.loopexit
    i32 2, label %.backedge.us78
    i32 3, label %.split62.us
    i32 4, label %.split65.us
  ]

.backedge.us78:                                   ; preds = %.preheader.split.us77
  %16 = load i32, ptr %11, align 8
  store i32 %16, ptr %12, align 8
  store i32 4, ptr %10, align 8
  br label %.preheader.split.us77

.preheader.split:                                 ; preds = %.preheader
  switch i32 %.promoted, label %isempty_RL.exit.thread [
    i32 1, label %isempty_RL.exit.thread.loopexit
    i32 2, label %17
    i32 3, label %.split62.us.thread
    i32 4, label %.split65.us.thread
  ]

17:                                               ; preds = %.preheader.split
  br label %isempty_RL.exit.thread.loopexit

.split68.us:                                      ; preds = %.preheader.split.us
  %18 = tail call fastcc zeroext i8 @handle_compress(ptr nonnull %6)
  %.not48 = icmp eq i8 %18, 0
  %19 = select i1 %.not48, i32 -2, i32 1
  br label %isempty_RL.exit.thread

.split62.us.thread:                               ; preds = %.preheader.split, %.preheader.split.us
  br label %isempty_RL.exit.thread

.split62.us:                                      ; preds = %.preheader.split.us77, %.preheader.split.us69
  %.not44 = icmp eq i32 %1, 1
  br i1 %.not44, label %20, label %isempty_RL.exit.thread

20:                                               ; preds = %.split62.us
  %21 = load i32, ptr %12, align 8
  %22 = getelementptr inbounds nuw i8, ptr %9, i64 8
  %23 = load i32, ptr %22, align 8
  %.not45 = icmp eq i32 %21, %23
  br i1 %.not45, label %24, label %isempty_RL.exit.thread

24:                                               ; preds = %20
  %.val49 = load ptr, ptr %5, align 8
  %25 = tail call fastcc zeroext i8 @handle_compress(ptr %.val49)
  %26 = load i32, ptr %12, align 8
  %.not46 = icmp eq i32 %26, 0
  br i1 %.not46, label %27, label %isempty_RL.exit.thread

27:                                               ; preds = %24
  %28 = getelementptr inbounds nuw i8, ptr %6, i64 92
  %29 = load i32, ptr %28, align 4
  %30 = icmp ult i32 %29, 256
  br i1 %30, label %31, label %isempty_RL.exit

31:                                               ; preds = %27
  %32 = getelementptr inbounds nuw i8, ptr %6, i64 96
  %33 = load i32, ptr %32, align 8
  %34 = icmp sgt i32 %33, 0
  br i1 %34, label %isempty_RL.exit.thread, label %isempty_RL.exit

isempty_RL.exit:                                  ; preds = %31, %27
  %35 = getelementptr inbounds nuw i8, ptr %6, i64 120
  %36 = load i32, ptr %35, align 8
  %37 = getelementptr inbounds nuw i8, ptr %6, i64 116
  %38 = load i32, ptr %37, align 4
  %39 = icmp slt i32 %36, %38
  br i1 %39, label %isempty_RL.exit.thread, label %40

40:                                               ; preds = %isempty_RL.exit
  store i32 2, ptr %10, align 8
  br label %isempty_RL.exit.thread

.split65.us.thread:                               ; preds = %.preheader.split, %.preheader.split.us
  br label %isempty_RL.exit.thread

.split65.us:                                      ; preds = %.preheader.split.us77, %.preheader.split.us69
  %.not39 = icmp eq i32 %1, 2
  br i1 %.not39, label %41, label %isempty_RL.exit.thread

41:                                               ; preds = %.split65.us
  %42 = load i32, ptr %12, align 8
  %43 = getelementptr inbounds nuw i8, ptr %9, i64 8
  %44 = load i32, ptr %43, align 8
  %.not40 = icmp eq i32 %42, %44
  br i1 %.not40, label %45, label %isempty_RL.exit.thread

45:                                               ; preds = %41
  %.val50 = load ptr, ptr %5, align 8
  %46 = tail call fastcc zeroext i8 @handle_compress(ptr %.val50)
  %.not41 = icmp eq i8 %46, 0
  br i1 %.not41, label %isempty_RL.exit.thread, label %47

47:                                               ; preds = %45
  %48 = load i32, ptr %12, align 8
  %.not42 = icmp eq i32 %48, 0
  br i1 %.not42, label %49, label %isempty_RL.exit.thread

49:                                               ; preds = %47
  %50 = getelementptr inbounds nuw i8, ptr %6, i64 92
  %51 = load i32, ptr %50, align 4
  %52 = icmp ult i32 %51, 256
  br i1 %52, label %53, label %isempty_RL.exit52

53:                                               ; preds = %49
  %54 = getelementptr inbounds nuw i8, ptr %6, i64 96
  %55 = load i32, ptr %54, align 8
  %56 = icmp sgt i32 %55, 0
  br i1 %56, label %isempty_RL.exit.thread, label %isempty_RL.exit52

isempty_RL.exit52:                                ; preds = %53, %49
  %57 = getelementptr inbounds nuw i8, ptr %6, i64 120
  %58 = load i32, ptr %57, align 8
  %59 = getelementptr inbounds nuw i8, ptr %6, i64 116
  %60 = load i32, ptr %59, align 4
  %61 = icmp slt i32 %58, %60
  br i1 %61, label %isempty_RL.exit.thread, label %62

62:                                               ; preds = %isempty_RL.exit52
  store i32 1, ptr %10, align 8
  br label %isempty_RL.exit.thread

isempty_RL.exit.thread.loopexit:                  ; preds = %.preheader.split.us77, %.preheader.split.us69, %.preheader.split, %17, %.preheader.split.us
  %.us-phi = phi i32 [ -1, %.preheader.split.us ], [ -2, %17 ], [ -1, %.preheader.split ], [ -1, %.preheader.split.us69 ], [ -1, %.preheader.split.us77 ]
  br label %isempty_RL.exit.thread

isempty_RL.exit.thread:                           ; preds = %.preheader.split.us77, %.preheader.split.us69, %.split65.us.thread, %.split62.us.thread, %.preheader.split.us, %.preheader.split, %isempty_RL.exit.thread.loopexit, %53, %31, %47, %isempty_RL.exit52, %45, %41, %.split65.us, %24, %isempty_RL.exit, %20, %.split62.us, %8, %4, %2, %62, %40, %.split68.us
  %.0 = phi i32 [ 4, %62 ], [ 1, %40 ], [ %19, %.split68.us ], [ -2, %2 ], [ -2, %4 ], [ -2, %8 ], [ -1, %.split62.us ], [ -1, %20 ], [ 2, %isempty_RL.exit ], [ 2, %24 ], [ -1, %.split65.us ], [ -1, %41 ], [ -1, %45 ], [ 3, %isempty_RL.exit52 ], [ 3, %47 ], [ 2, %31 ], [ 3, %53 ], [ %.us-phi, %isempty_RL.exit.thread.loopexit ], [ 0, %.preheader.split ], [ 0, %.preheader.split.us ], [ -1, %.split62.us.thread ], [ -1, %.split65.us.thread ], [ 0, %.preheader.split.us69 ], [ 0, %.preheader.split.us77 ]
  ret i32 %.0
}